---
triple:          'x86_64-apple-darwin'
binary-path:     '/Users/tevfikaytekin/Documents/data_science/recommender_systems/matrix_factorization'
relocations:
  - { offsetInCU: 0x3F, offset: 0x3F, size: 0x8, addend: 0x0, symName: _n_factors, symObjAddr: 0x3140, symBinAddr: 0x100008000, symSize: 0x0 }
  - { offsetInCU: 0x5B, offset: 0x5B, size: 0x8, addend: 0x0, symName: _alpha, symObjAddr: 0x3144, symBinAddr: 0x100008004, symSize: 0x0 }
  - { offsetInCU: 0x77, offset: 0x77, size: 0x8, addend: 0x0, symName: _my_lambda, symObjAddr: 0x3148, symBinAddr: 0x100008008, symSize: 0x0 }
  - { offsetInCU: 0x8C, offset: 0x8C, size: 0x8, addend: 0x0, symName: _n_iters, symObjAddr: 0x314C, symBinAddr: 0x10000800C, symSize: 0x0 }
  - { offsetInCU: 0xA1, offset: 0xA1, size: 0x8, addend: 0x0, symName: _u_factors, symObjAddr: 0x4FCA8, symBinAddr: 0x100008018, symSize: 0x0 }
  - { offsetInCU: 0x4BA1, offset: 0x4BA1, size: 0x8, addend: 0x0, symName: __ZNSt3__1L19piecewise_constructE, symObjAddr: 0x320F, symBinAddr: 0x100003E14, symSize: 0x0 }
  - { offsetInCU: 0x7CA7, offset: 0x7CA7, size: 0x8, addend: 0x0, symName: __ZNSt3__124__put_character_sequenceB7v160006IcNS_11char_traitsIcEEEERNS_13basic_ostreamIT_T0_EES7_PKS4_m, symObjAddr: 0x1D40, symBinAddr: 0x100002900, symSize: 0x150 }
  - { offsetInCU: 0xBF12, offset: 0xBF12, size: 0x8, addend: 0x0, symName: __ZNSt3__17getlineB7v160006IcNS_11char_traitsIcEENS_9allocatorIcEEEERNS_13basic_istreamIT_T0_EES9_RNS_12basic_stringIS6_S7_T1_EES6_, symObjAddr: 0x850, symBinAddr: 0x100001410, symSize: 0x150 }
  - { offsetInCU: 0xCEDC, offset: 0xCEDC, size: 0x8, addend: 0x0, symName: __ZNSt3__120__throw_length_errorB7v160006EPKc, symObjAddr: 0x1C70, symBinAddr: 0x100002830, symSize: 0x50 }
  - { offsetInCU: 0xCF19, offset: 0xCF19, size: 0x8, addend: 0x0, symName: __ZNSt3__116__pad_and_outputB7v160006IcNS_11char_traitsIcEEEENS_19ostreambuf_iteratorIT_T0_EES6_PKS4_S8_S8_RNS_8ios_baseES4_, symObjAddr: 0x1E90, symBinAddr: 0x100002A50, symSize: 0x150 }
  - { offsetInCU: 0xD9EF, offset: 0xD9EF, size: 0x8, addend: 0x0, symName: __ZSt28__throw_bad_array_new_lengthB7v160006v, symObjAddr: 0x1CF0, symBinAddr: 0x1000028B0, symSize: 0x40 }
  - { offsetInCU: 0xE0C0, offset: 0xE0C0, size: 0x8, addend: 0x0, symName: _i_factors, symObjAddr: 0x4FCD0, symBinAddr: 0x100008040, symSize: 0x0 }
  - { offsetInCU: 0xE0D5, offset: 0xE0D5, size: 0x8, addend: 0x0, symName: _prefs, symObjAddr: 0x4FCF8, symBinAddr: 0x100008068, symSize: 0x0 }
  - { offsetInCU: 0xE2C3, offset: 0xE2C3, size: 0x8, addend: 0x0, symName: _f_cols, symObjAddr: 0x3150, symBinAddr: 0x100008010, symSize: 0x0 }
  - { offsetInCU: 0xE86D, offset: 0xE86D, size: 0x8, addend: 0x0, symName: __ZNSt3__124uniform_int_distributionIlEclINS_26linear_congruential_engineIjLj48271ELj0ELj2147483647EEEEElRT_RKNS1_10param_typeE, symObjAddr: 0x2A70, symBinAddr: 0x100003630, symSize: 0x3C8 }
  - { offsetInCU: 0x110DE, offset: 0x110DE, size: 0x8, addend: 0x0, symName: __ZNSt3__113unordered_mapIlPdNS_4hashIlEENS_8equal_toIlEENS_9allocatorINS_4pairIKlS1_EEEEED1B7v160006Ev, symObjAddr: 0x0, symBinAddr: 0x100000BC0, symSize: 0x50 }
  - { offsetInCU: 0x114A3, offset: 0x114A3, size: 0x8, addend: 0x0, symName: __ZNSt3__16vectorIPdNS_9allocatorIS1_EEED1B7v160006Ev, symObjAddr: 0x50, symBinAddr: 0x100000C10, symSize: 0x20 }
  - { offsetInCU: 0x11F16, offset: 0x11F16, size: 0x8, addend: 0x0, symName: __Z9read_filev, symObjAddr: 0x70, symBinAddr: 0x100000C30, symSize: 0x680 }
  - { offsetInCU: 0x12E00, offset: 0x12E00, size: 0x8, addend: 0x0, symName: __ZNSt3__118basic_stringstreamIcNS_11char_traitsIcEENS_9allocatorIcEEEC1B7v160006ERKNS_12basic_stringIcS2_S4_EEj, symObjAddr: 0x6F0, symBinAddr: 0x1000012B0, symSize: 0x160 }
  - { offsetInCU: 0x1303C, offset: 0x1303C, size: 0x8, addend: 0x0, symName: __ZNKSt3__16vectorIPdNS_9allocatorIS1_EEE20__throw_length_errorB7v160006Ev, symObjAddr: 0x1FE0, symBinAddr: 0x100002BA0, symSize: 0x10 }
  - { offsetInCU: 0x13066, offset: 0x13066, size: 0x8, addend: 0x0, symName: __ZNSt3__112__hash_tableINS_17__hash_value_typeIlPdEENS_22__unordered_map_hasherIlS3_NS_4hashIlEENS_8equal_toIlEELb1EEENS_21__unordered_map_equalIlS3_S8_S6_Lb1EEENS_9allocatorIS3_EEE25__emplace_unique_key_argsIlJRKNS_21piecewise_construct_tENS_5tupleIJRKlEEENSJ_IJEEEEEENS_4pairINS_15__hash_iteratorIPNS_11__hash_nodeIS3_PvEEEEbEERKT_DpOT0_, symObjAddr: 0x1FF0, symBinAddr: 0x100002BB0, symSize: 0x420 }
  - { offsetInCU: 0x13071, offset: 0x13071, size: 0x8, addend: 0x0, symName: __ZNSt3__118basic_stringstreamIcNS_11char_traitsIcEENS_9allocatorIcEEED1Ev, symObjAddr: 0x9A0, symBinAddr: 0x100001560, symSize: 0x80 }
  - { offsetInCU: 0x1320C, offset: 0x1320C, size: 0x8, addend: 0x0, symName: __ZNSt3__114basic_ifstreamIcNS_11char_traitsIcEEED1Ev, symObjAddr: 0xA20, symBinAddr: 0x1000015E0, symSize: 0x50 }
  - { offsetInCU: 0x134C8, offset: 0x134C8, size: 0x8, addend: 0x0, symName: __Z11dot_productPdS_i, symObjAddr: 0xA70, symBinAddr: 0x100001630, symSize: 0xB0 }
  - { offsetInCU: 0x135E2, offset: 0x135E2, size: 0x8, addend: 0x0, symName: __Z10calc_errorll, symObjAddr: 0xB20, symBinAddr: 0x1000016E0, symSize: 0x1F0 }
  - { offsetInCU: 0x137D2, offset: 0x137D2, size: 0x8, addend: 0x0, symName: __ZNSt3__112__hash_tableINS_17__hash_value_typeIlPdEENS_22__unordered_map_hasherIlS3_NS_4hashIlEENS_8equal_toIlEELb1EEENS_21__unordered_map_equalIlS3_S8_S6_Lb1EEENS_9allocatorIS3_EEE25__emplace_unique_key_argsIlJRKNS_21piecewise_construct_tENS_5tupleIJRKlEEENSJ_IJEEEEEENS_4pairINS_15__hash_iteratorIPNS_11__hash_nodeIS3_PvEEEEbEERKT_DpOT0_, symObjAddr: 0x1FF0, symBinAddr: 0x100002BB0, symSize: 0x420 }
  - { offsetInCU: 0x143AF, offset: 0x143AF, size: 0x8, addend: 0x0, symName: __Z3sgdv, symObjAddr: 0xD10, symBinAddr: 0x1000018D0, symSize: 0xA10 }
  - { offsetInCU: 0x157F7, offset: 0x157F7, size: 0x8, addend: 0x0, symName: __ZNSt3__112__hash_tableINS_17__hash_value_typeIlPdEENS_22__unordered_map_hasherIlS3_NS_4hashIlEENS_8equal_toIlEELb1EEENS_21__unordered_map_equalIlS3_S8_S6_Lb1EEENS_9allocatorIS3_EEE25__emplace_unique_key_argsIlJRKNS_21piecewise_construct_tENS_5tupleIJOlEEENSJ_IJEEEEEENS_4pairINS_15__hash_iteratorIPNS_11__hash_nodeIS3_PvEEEEbEERKT_DpOT0_, symObjAddr: 0x2650, symBinAddr: 0x100003210, symSize: 0x420 }
  - { offsetInCU: 0x15F8D, offset: 0x15F8D, size: 0x8, addend: 0x0, symName: __Z13write_factorsv, symObjAddr: 0x1720, symBinAddr: 0x1000022E0, symSize: 0x3D0 }
  - { offsetInCU: 0x164F1, offset: 0x164F1, size: 0x8, addend: 0x0, symName: __ZNSt3__114basic_ofstreamIcNS_11char_traitsIcEEEC1EPKcj, symObjAddr: 0x1AF0, symBinAddr: 0x1000026B0, symSize: 0x110 }
  - { offsetInCU: 0x165CD, offset: 0x165CD, size: 0x8, addend: 0x0, symName: __ZNSt3__114basic_ofstreamIcNS_11char_traitsIcEEED1Ev, symObjAddr: 0x1C00, symBinAddr: 0x1000027C0, symSize: 0x50 }
  - { offsetInCU: 0x16646, offset: 0x16646, size: 0x8, addend: 0x0, symName: _main, symObjAddr: 0x1C50, symBinAddr: 0x100002810, symSize: 0x20 }
  - { offsetInCU: 0x1668B, offset: 0x1668B, size: 0x8, addend: 0x0, symName: __ZNSt12length_errorC1B7v160006EPKc, symObjAddr: 0x1CC0, symBinAddr: 0x100002880, symSize: 0x30 }
  - { offsetInCU: 0x16ED1, offset: 0x16ED1, size: 0x8, addend: 0x0, symName: __ZNSt3__112__hash_tableINS_17__hash_value_typeIlPdEENS_22__unordered_map_hasherIlS3_NS_4hashIlEENS_8equal_toIlEELb1EEENS_21__unordered_map_equalIlS3_S8_S6_Lb1EEENS_9allocatorIS3_EEE11__do_rehashILb1EEEvm, symObjAddr: 0x2410, symBinAddr: 0x100002FD0, symSize: 0x240 }
...
